
Relay.elf:     file format elf32-avr

Sections:
Idx Name          Size      VMA       LMA       File off  Algn
  0 .text         000001fc  00000000  00000000  00000074  2**1
                  CONTENTS, ALLOC, LOAD, READONLY, CODE
  1 .data         00000000  00800060  000001fc  00000270  2**0
                  CONTENTS, ALLOC, LOAD, DATA
  2 .stab         000006cc  00000000  00000000  00000270  2**2
                  CONTENTS, READONLY, DEBUGGING
  3 .stabstr      00000085  00000000  00000000  0000093c  2**0
                  CONTENTS, READONLY, DEBUGGING
  4 .debug_aranges 000000a0  00000000  00000000  000009c8  2**3
                  CONTENTS, READONLY, DEBUGGING
  5 .debug_info   00000635  00000000  00000000  00000a68  2**0
                  CONTENTS, READONLY, DEBUGGING
  6 .debug_abbrev 000001cc  00000000  00000000  0000109d  2**0
                  CONTENTS, READONLY, DEBUGGING
  7 .debug_line   000003aa  00000000  00000000  00001269  2**0
                  CONTENTS, READONLY, DEBUGGING
  8 .debug_frame  000000d8  00000000  00000000  00001614  2**2
                  CONTENTS, READONLY, DEBUGGING
  9 .debug_str    000001ce  00000000  00000000  000016ec  2**0
                  CONTENTS, READONLY, DEBUGGING
 10 .debug_loc    00000280  00000000  00000000  000018ba  2**0
                  CONTENTS, READONLY, DEBUGGING

Disassembly of section .text:

00000000 <__vectors>:
   0:	0c 94 2a 00 	jmp	0x54	; 0x54 <__ctors_end>
   4:	0c 94 47 00 	jmp	0x8e	; 0x8e <__bad_interrupt>
   8:	0c 94 47 00 	jmp	0x8e	; 0x8e <__bad_interrupt>
   c:	0c 94 47 00 	jmp	0x8e	; 0x8e <__bad_interrupt>
  10:	0c 94 47 00 	jmp	0x8e	; 0x8e <__bad_interrupt>
  14:	0c 94 47 00 	jmp	0x8e	; 0x8e <__bad_interrupt>
  18:	0c 94 47 00 	jmp	0x8e	; 0x8e <__bad_interrupt>
  1c:	0c 94 47 00 	jmp	0x8e	; 0x8e <__bad_interrupt>
  20:	0c 94 47 00 	jmp	0x8e	; 0x8e <__bad_interrupt>
  24:	0c 94 47 00 	jmp	0x8e	; 0x8e <__bad_interrupt>
  28:	0c 94 47 00 	jmp	0x8e	; 0x8e <__bad_interrupt>
  2c:	0c 94 47 00 	jmp	0x8e	; 0x8e <__bad_interrupt>
  30:	0c 94 47 00 	jmp	0x8e	; 0x8e <__bad_interrupt>
  34:	0c 94 47 00 	jmp	0x8e	; 0x8e <__bad_interrupt>
  38:	0c 94 47 00 	jmp	0x8e	; 0x8e <__bad_interrupt>
  3c:	0c 94 47 00 	jmp	0x8e	; 0x8e <__bad_interrupt>
  40:	0c 94 47 00 	jmp	0x8e	; 0x8e <__bad_interrupt>
  44:	0c 94 47 00 	jmp	0x8e	; 0x8e <__bad_interrupt>
  48:	0c 94 47 00 	jmp	0x8e	; 0x8e <__bad_interrupt>
  4c:	0c 94 47 00 	jmp	0x8e	; 0x8e <__bad_interrupt>
  50:	0c 94 47 00 	jmp	0x8e	; 0x8e <__bad_interrupt>

00000054 <__ctors_end>:
  54:	11 24       	eor	r1, r1
  56:	1f be       	out	0x3f, r1	; 63
  58:	cf e5       	ldi	r28, 0x5F	; 95
  5a:	d8 e0       	ldi	r29, 0x08	; 8
  5c:	de bf       	out	0x3e, r29	; 62
  5e:	cd bf       	out	0x3d, r28	; 61

00000060 <__do_copy_data>:
  60:	10 e0       	ldi	r17, 0x00	; 0
  62:	a0 e6       	ldi	r26, 0x60	; 96
  64:	b0 e0       	ldi	r27, 0x00	; 0
  66:	ec ef       	ldi	r30, 0xFC	; 252
  68:	f1 e0       	ldi	r31, 0x01	; 1
  6a:	02 c0       	rjmp	.+4      	; 0x70 <__do_copy_data+0x10>
  6c:	05 90       	lpm	r0, Z+
  6e:	0d 92       	st	X+, r0
  70:	a0 36       	cpi	r26, 0x60	; 96
  72:	b1 07       	cpc	r27, r17
  74:	d9 f7       	brne	.-10     	; 0x6c <__do_copy_data+0xc>

00000076 <__do_clear_bss>:
  76:	10 e0       	ldi	r17, 0x00	; 0
  78:	a0 e6       	ldi	r26, 0x60	; 96
  7a:	b0 e0       	ldi	r27, 0x00	; 0
  7c:	01 c0       	rjmp	.+2      	; 0x80 <.do_clear_bss_start>

0000007e <.do_clear_bss_loop>:
  7e:	1d 92       	st	X+, r1

00000080 <.do_clear_bss_start>:
  80:	a0 36       	cpi	r26, 0x60	; 96
  82:	b1 07       	cpc	r27, r17
  84:	e1 f7       	brne	.-8      	; 0x7e <.do_clear_bss_loop>
  86:	0e 94 da 00 	call	0x1b4	; 0x1b4 <main>
  8a:	0c 94 fc 00 	jmp	0x1f8	; 0x1f8 <_exit>

0000008e <__bad_interrupt>:
  8e:	0c 94 00 00 	jmp	0	; 0x0 <__vectors>

00000092 <DIO_Set_Port_Direction>:


/*        SET Direction         */ 
void DIO_Set_Port_Direction(u8 Base, u8 Direction)
{
	if((Direction == OUTPUT)||(Direction==1))
  92:	61 30       	cpi	r22, 0x01	; 1
  94:	29 f4       	brne	.+10     	; 0xa0 <DIO_Set_Port_Direction+0xe>
	{
		(*(volatile u8*)(Base+1)) = 0xFF;
  96:	e8 2f       	mov	r30, r24
  98:	f0 e0       	ldi	r31, 0x00	; 0
  9a:	8f ef       	ldi	r24, 0xFF	; 255
  9c:	81 83       	std	Z+1, r24	; 0x01
  9e:	08 95       	ret
	}
	else if((Direction == INPUT)||(Direction==0))
  a0:	66 23       	and	r22, r22
  a2:	19 f4       	brne	.+6      	; 0xaa <DIO_Set_Port_Direction+0x18>
	{
		(*(volatile u8*)(Base+1)) = 0x00;
  a4:	e8 2f       	mov	r30, r24
  a6:	f0 e0       	ldi	r31, 0x00	; 0
  a8:	11 82       	std	Z+1, r1	; 0x01
  aa:	08 95       	ret

000000ac <DIO_Set_Pin_Direction>:


void DIO_Set_Pin_Direction(u8 Base, u8 PIN, u8 Direction)
{

	if((Direction == OUTPUT) || (Direction == 1))
  ac:	41 30       	cpi	r20, 0x01	; 1
  ae:	79 f4       	brne	.+30     	; 0xce <DIO_Set_Pin_Direction+0x22>
	{
		//SET_BIT((*(volatile u8*)(Base+1)),PIN);  // OUTPUT = 1
		(*(volatile u8*)(Base+1))|=(1<<PIN);
  b0:	e8 2f       	mov	r30, r24
  b2:	f0 e0       	ldi	r31, 0x00	; 0
  b4:	21 81       	ldd	r18, Z+1	; 0x01
  b6:	81 e0       	ldi	r24, 0x01	; 1
  b8:	90 e0       	ldi	r25, 0x00	; 0
  ba:	ac 01       	movw	r20, r24
  bc:	02 c0       	rjmp	.+4      	; 0xc2 <DIO_Set_Pin_Direction+0x16>
  be:	44 0f       	add	r20, r20
  c0:	55 1f       	adc	r21, r21
  c2:	6a 95       	dec	r22
  c4:	e2 f7       	brpl	.-8      	; 0xbe <DIO_Set_Pin_Direction+0x12>
  c6:	ba 01       	movw	r22, r20
  c8:	62 2b       	or	r22, r18
  ca:	61 83       	std	Z+1, r22	; 0x01
  cc:	08 95       	ret
	}
	else if((Direction == INPUT) || (Direction == 0))
  ce:	44 23       	and	r20, r20
  d0:	79 f4       	brne	.+30     	; 0xf0 <DIO_Set_Pin_Direction+0x44>
	{
		//CLR_BIT((*(volatile u8*)(Base+1)),PIN); // INPUT = 0;
		(*(volatile u8*)(Base+1))&=(~(1<<PIN)); 
  d2:	e8 2f       	mov	r30, r24
  d4:	f0 e0       	ldi	r31, 0x00	; 0
  d6:	21 81       	ldd	r18, Z+1	; 0x01
  d8:	81 e0       	ldi	r24, 0x01	; 1
  da:	90 e0       	ldi	r25, 0x00	; 0
  dc:	ac 01       	movw	r20, r24
  de:	02 c0       	rjmp	.+4      	; 0xe4 <DIO_Set_Pin_Direction+0x38>
  e0:	44 0f       	add	r20, r20
  e2:	55 1f       	adc	r21, r21
  e4:	6a 95       	dec	r22
  e6:	e2 f7       	brpl	.-8      	; 0xe0 <DIO_Set_Pin_Direction+0x34>
  e8:	ba 01       	movw	r22, r20
  ea:	60 95       	com	r22
  ec:	62 23       	and	r22, r18
  ee:	61 83       	std	Z+1, r22	; 0x01
  f0:	08 95       	ret

000000f2 <DIO_Set_Port_Value>:


/*        SET Value         */ 
void DIO_Set_Port_Value(u8 Base, u8 Value)
{
	(*(volatile u8*)(Base+2)) = Value;
  f2:	e8 2f       	mov	r30, r24
  f4:	f0 e0       	ldi	r31, 0x00	; 0
  f6:	62 83       	std	Z+2, r22	; 0x02
}
  f8:	08 95       	ret

000000fa <DIO_Set_Pin_Value>:

void DIO_Set_Pin_Value(u8 Base,u8 PIN, u8 Value)
{
	if((Value == HIGH) || (Value == 1))
  fa:	41 30       	cpi	r20, 0x01	; 1
  fc:	79 f4       	brne	.+30     	; 0x11c <DIO_Set_Pin_Value+0x22>
	{	//SET_BIT((*(volatile u8*)(Base+2)),PIN);
		(*(volatile u8*)(Base+2))|=(1<<PIN);
  fe:	e8 2f       	mov	r30, r24
 100:	f0 e0       	ldi	r31, 0x00	; 0
 102:	22 81       	ldd	r18, Z+2	; 0x02
 104:	81 e0       	ldi	r24, 0x01	; 1
 106:	90 e0       	ldi	r25, 0x00	; 0
 108:	ac 01       	movw	r20, r24
 10a:	02 c0       	rjmp	.+4      	; 0x110 <DIO_Set_Pin_Value+0x16>
 10c:	44 0f       	add	r20, r20
 10e:	55 1f       	adc	r21, r21
 110:	6a 95       	dec	r22
 112:	e2 f7       	brpl	.-8      	; 0x10c <DIO_Set_Pin_Value+0x12>
 114:	ba 01       	movw	r22, r20
 116:	62 2b       	or	r22, r18
 118:	62 83       	std	Z+2, r22	; 0x02
 11a:	08 95       	ret
	}
	else if((Value == LOW) || (Value == 0))
 11c:	44 23       	and	r20, r20
 11e:	79 f4       	brne	.+30     	; 0x13e <DIO_Set_Pin_Value+0x44>
	{
		(*(volatile u8*)(Base+2))&=(~(1<<PIN));
 120:	e8 2f       	mov	r30, r24
 122:	f0 e0       	ldi	r31, 0x00	; 0
 124:	22 81       	ldd	r18, Z+2	; 0x02
 126:	81 e0       	ldi	r24, 0x01	; 1
 128:	90 e0       	ldi	r25, 0x00	; 0
 12a:	ac 01       	movw	r20, r24
 12c:	02 c0       	rjmp	.+4      	; 0x132 <DIO_Set_Pin_Value+0x38>
 12e:	44 0f       	add	r20, r20
 130:	55 1f       	adc	r21, r21
 132:	6a 95       	dec	r22
 134:	e2 f7       	brpl	.-8      	; 0x12e <DIO_Set_Pin_Value+0x34>
 136:	ba 01       	movw	r22, r20
 138:	60 95       	com	r22
 13a:	62 23       	and	r22, r18
 13c:	62 83       	std	Z+2, r22	; 0x02
 13e:	08 95       	ret

00000140 <DIO_Get_Port_value>:
	}
}

/*        Get Value         */ 
u8 DIO_Get_Port_value(u8 Base)
{
 140:	cf 93       	push	r28
 142:	df 93       	push	r29
 144:	0f 92       	push	r0
 146:	cd b7       	in	r28, 0x3d	; 61
 148:	de b7       	in	r29, 0x3e	; 62
	 volatile u8 Value;
	Value = (*(volatile u8*)(Base));
 14a:	e8 2f       	mov	r30, r24
 14c:	f0 e0       	ldi	r31, 0x00	; 0
 14e:	80 81       	ld	r24, Z
 150:	89 83       	std	Y+1, r24	; 0x01
	return Value;
 152:	89 81       	ldd	r24, Y+1	; 0x01
}
 154:	0f 90       	pop	r0
 156:	df 91       	pop	r29
 158:	cf 91       	pop	r28
 15a:	08 95       	ret

0000015c <DIO_Get_Pin_value>:


u8 DIO_Get_Pin_value (u8 Base, u8 PIN)
{
 15c:	cf 93       	push	r28
 15e:	df 93       	push	r29
 160:	0f 92       	push	r0
 162:	cd b7       	in	r28, 0x3d	; 61
 164:	de b7       	in	r29, 0x3e	; 62
	volatile u8 Value;
	Value = ((*(volatile u8*)(Base))>>PIN)&1;	
 166:	e8 2f       	mov	r30, r24
 168:	f0 e0       	ldi	r31, 0x00	; 0
 16a:	80 81       	ld	r24, Z
 16c:	90 e0       	ldi	r25, 0x00	; 0
 16e:	9c 01       	movw	r18, r24
 170:	02 c0       	rjmp	.+4      	; 0x176 <DIO_Get_Pin_value+0x1a>
 172:	35 95       	asr	r19
 174:	27 95       	ror	r18
 176:	6a 95       	dec	r22
 178:	e2 f7       	brpl	.-8      	; 0x172 <DIO_Get_Pin_value+0x16>
 17a:	b9 01       	movw	r22, r18
 17c:	61 70       	andi	r22, 0x01	; 1
 17e:	69 83       	std	Y+1, r22	; 0x01
	return Value;
 180:	89 81       	ldd	r24, Y+1	; 0x01
}
 182:	0f 90       	pop	r0
 184:	df 91       	pop	r29
 186:	cf 91       	pop	r28
 188:	08 95       	ret

0000018a <DIO_SET_HIGH_Nipple_Value>:
/* Set HIGH NIPPLE */

void DIO_SET_HIGH_Nipple_Value(u8 Base, u8 Data)
{
	Data<<=4;
	(*(volatile u8*)(Base+2)) &=0x0f;  //to CLR HIGH NIPPLE Pins before write 
 18a:	e8 2f       	mov	r30, r24
 18c:	f0 e0       	ldi	r31, 0x00	; 0
 18e:	82 81       	ldd	r24, Z+2	; 0x02
 190:	8f 70       	andi	r24, 0x0F	; 15
 192:	82 83       	std	Z+2, r24	; 0x02
	(*(volatile u8*)(Base+2)) ^=Data;
 194:	82 81       	ldd	r24, Z+2	; 0x02

/* Set HIGH NIPPLE */

void DIO_SET_HIGH_Nipple_Value(u8 Base, u8 Data)
{
	Data<<=4;
 196:	62 95       	swap	r22
 198:	60 7f       	andi	r22, 0xF0	; 240
	(*(volatile u8*)(Base+2)) &=0x0f;  //to CLR HIGH NIPPLE Pins before write 
	(*(volatile u8*)(Base+2)) ^=Data;
 19a:	68 27       	eor	r22, r24
 19c:	62 83       	std	Z+2, r22	; 0x02
	
} 
 19e:	08 95       	ret

000001a0 <DIO_SET_LOW_Nipple_Value>:

/* Set LOW NIPPLE */

void DIO_SET_LOW_Nipple_Value(u8 Base, u8 Data)
{
	(*(volatile u8*)(Base+2)) &=0xf0;  //to CLR LOW NIPPLE before write
 1a0:	e8 2f       	mov	r30, r24
 1a2:	f0 e0       	ldi	r31, 0x00	; 0
 1a4:	82 81       	ldd	r24, Z+2	; 0x02
 1a6:	80 7f       	andi	r24, 0xF0	; 240
 1a8:	82 83       	std	Z+2, r24	; 0x02
	(*(volatile u8*)(Base+2)) ^=(Data & 0x0F) ;
 1aa:	82 81       	ldd	r24, Z+2	; 0x02
 1ac:	6f 70       	andi	r22, 0x0F	; 15
 1ae:	68 27       	eor	r22, r24
 1b0:	62 83       	std	Z+2, r22	; 0x02
	
}
 1b2:	08 95       	ret

000001b4 <main>:

#include "GPIO.h"

int main(void)
{
	DIO_Set_Pin_Direction(D,0,OUTPUT);
 1b4:	80 e3       	ldi	r24, 0x30	; 48
 1b6:	60 e0       	ldi	r22, 0x00	; 0
 1b8:	41 e0       	ldi	r20, 0x01	; 1
 1ba:	0e 94 56 00 	call	0xac	; 0xac <DIO_Set_Pin_Direction>
    while(1)
    {
		 DIO_Set_Pin_Value(D,0,HIGH);
 1be:	80 e3       	ldi	r24, 0x30	; 48
 1c0:	60 e0       	ldi	r22, 0x00	; 0
 1c2:	41 e0       	ldi	r20, 0x01	; 1
 1c4:	0e 94 7d 00 	call	0xfa	; 0xfa <DIO_Set_Pin_Value>
	#else
		//round up by default
		__ticks_dc = (uint32_t)(ceil(fabs(__tmp)));
	#endif

	__builtin_avr_delay_cycles(__ticks_dc);
 1c8:	8f ef       	ldi	r24, 0xFF	; 255
 1ca:	99 e6       	ldi	r25, 0x69	; 105
 1cc:	a8 e1       	ldi	r26, 0x18	; 24
 1ce:	81 50       	subi	r24, 0x01	; 1
 1d0:	90 40       	sbci	r25, 0x00	; 0
 1d2:	a0 40       	sbci	r26, 0x00	; 0
 1d4:	e1 f7       	brne	.-8      	; 0x1ce <main+0x1a>
 1d6:	00 c0       	rjmp	.+0      	; 0x1d8 <main+0x24>
 1d8:	00 00       	nop
		 _delay_ms(1000);
		 DIO_Set_Pin_Value(D,0,LOW);
 1da:	80 e3       	ldi	r24, 0x30	; 48
 1dc:	60 e0       	ldi	r22, 0x00	; 0
 1de:	40 e0       	ldi	r20, 0x00	; 0
 1e0:	0e 94 7d 00 	call	0xfa	; 0xfa <DIO_Set_Pin_Value>
 1e4:	8f ef       	ldi	r24, 0xFF	; 255
 1e6:	99 e6       	ldi	r25, 0x69	; 105
 1e8:	a8 e1       	ldi	r26, 0x18	; 24
 1ea:	81 50       	subi	r24, 0x01	; 1
 1ec:	90 40       	sbci	r25, 0x00	; 0
 1ee:	a0 40       	sbci	r26, 0x00	; 0
 1f0:	e1 f7       	brne	.-8      	; 0x1ea <main+0x36>
 1f2:	00 c0       	rjmp	.+0      	; 0x1f4 <main+0x40>
 1f4:	00 00       	nop
 1f6:	e3 cf       	rjmp	.-58     	; 0x1be <main+0xa>

000001f8 <_exit>:
 1f8:	f8 94       	cli

000001fa <__stop_program>:
 1fa:	ff cf       	rjmp	.-2      	; 0x1fa <__stop_program>
